target datalayout = "e-m:e-p270:32:32-p271:32:32-p272:64:64-i64:64-i128:128-f80:128-n8:16:32:64-S128"
target triple = "x86_64-pc-linux-gnu"

%struct.preference = type { ptr, ptr, ptr, i32, i32, i32, %union.anon, %union.anon.0, %union.anon.1, %union.anon.2, %struct.pref_custom_cbs, ptr, ptr }
%union.anon = type { ptr }
%union.anon.0 = type { ptr }
%union.anon.1 = type { ptr }
%union.anon.2 = type { %struct.anon }
%struct.anon = type { ptr, i8 }
%struct.pref_custom_cbs = type { ptr, ptr, ptr, ptr, ptr, ptr, ptr }

; Function Attrs: null_pointer_is_valid sspstrong uwtable
define internal zeroext i1 @column_hidden_fmt_is_default_cb(ptr noundef %0) #1 {
  %2 = alloca ptr, align 8
  %3 = alloca ptr, align 8
  %4 = alloca i8, align 1
  store ptr %0, ptr %2, align 8
  call void @llvm.lifetime.start.p0(i64 8, ptr %3) #17
  %5 = load ptr, ptr %2, align 8
  %6 = call ptr @column_hidden_fmt_to_str_cb(ptr noundef %5, i1 noundef zeroext false)
  store ptr %6, ptr %3, align 8
  call void @llvm.lifetime.start.p0(i64 1, ptr %4) #17
  %7 = load ptr, ptr %3, align 8
  %8 = load ptr, ptr %2, align 8
  %9 = getelementptr inbounds nuw %struct.preference, ptr %8, i32 0, i32 8
  %10 = load ptr, ptr %9, align 8
  %11 = call i32 @g_strcmp0(ptr noundef %7, ptr noundef %10)
  %12 = icmp eq i32 %11, 0
  %13 = zext i1 %12 to i8
  store i8 %13, ptr %4, align 1
  %14 = load ptr, ptr %3, align 8
  call void @g_free(ptr noundef %14)
  %15 = load i8, ptr %4, align 1, !range !6, !noundef !7
  %16 = trunc i8 %15 to i1
  call void @llvm.lifetime.end.p0(i64 1, ptr %4) #17
  call void @llvm.lifetime.end.p0(i64 8, ptr %3) #17
  ret i1 %16
}