; Function Attrs: null_pointer_is_valid sspstrong uwtable
define internal zeroext i1 @column_hidden_fmt_is_default_cb(ptr noundef readonly captures(none) %0) #1 {
  %2 = tail call ptr @column_hidden_fmt_to_str_cb(ptr noundef %0, i1 noundef zeroext false)
  %3 = getelementptr inbounds nuw i8, ptr %0, i64 56
  %4 = load ptr, ptr %3, align 8
  %5 = tail call i32 @g_strcmp0(ptr noundef %2, ptr noundef %4)
  %6 = icmp eq i32 %5, 0
  tail call void @g_free(ptr noundef %2)
  ret i1 %6
}